; Function Attrs: mustprogress nounwind uwtable
define dso_local void @_ZN4llvm5Regex6escapeB5cxx11ENS_9StringRefE(ptr dead_on_unwind noalias nonnull writable sret(%"class.std::__cxx11::basic_string") align 8 %0, ptr readonly %1, i64 %2) local_unnamed_addr #1 align 2 {
  tail call void @_ZNSt7__cxx1112basic_stringIcSt11char_traitsIcESaIcEEC1Ev(ptr noundef nonnull align 8 dereferenceable(32) %0) #16
  %4 = getelementptr inbounds i8, ptr %1, i64 %2
  %.not10 = icmp eq i64 %2, 0
  br i1 %.not10, label %._crit_edge, label %.lr.ph

.lr.ph:                                           ; preds = %3, %9
  %.011 = phi ptr [ %11, %9 ], [ %1, %3 ]
  %5 = load i8, ptr %.011, align 1
  %6 = sext i8 %5 to i32
  %memchr = tail call ptr @memchr(ptr nonnull dereferenceable(1) @_ZL14RegexMetachars, i32 %6, i64 15)
  %.not8 = icmp eq ptr %memchr, null
  br i1 %.not8, label %9, label %7

7:                                                ; preds = %.lr.ph
  %8 = tail call noundef nonnull align 8 dereferenceable(32) ptr @_ZNSt7__cxx1112basic_stringIcSt11char_traitsIcESaIcEEpLEc(ptr noundef nonnull align 8 dereferenceable(32) %0, i8 noundef signext 92) #16
  br label %9

9:                                                ; preds = %7, %.lr.ph
  %10 = tail call noundef nonnull align 8 dereferenceable(32) ptr @_ZNSt7__cxx1112basic_stringIcSt11char_traitsIcESaIcEEpLEc(ptr noundef nonnull align 8 dereferenceable(32) %0, i8 noundef signext %5) #16
  %11 = getelementptr inbounds nuw i8, ptr %.011, i64 1
  %.not = icmp eq ptr %11, %4
  br i1 %.not, label %._crit_edge, label %.lr.ph

._crit_edge:                                      ; preds = %9, %3
  ret void
}